target datalayout = "e-m:e-p270:32:32-p271:32:32-p272:64:64-i64:64-i128:128-f80:128-n8:16:32:64-S128"
target triple = "x86_64-pc-linux-gnu"

%"class.duckdb::DataChunk" = type { %"class.duckdb::vector.7", i64, i64, %"class.duckdb::vector.13" }
%"class.duckdb::vector.7" = type { %"class.std::vector.8" }
%"class.std::vector.8" = type { %"struct.std::_Vector_base.9" }
%"struct.std::_Vector_base.9" = type { %"struct.std::_Vector_base<duckdb::Vector, std::allocator<duckdb::Vector>>::_Vector_impl" }
%"struct.std::_Vector_base<duckdb::Vector, std::allocator<duckdb::Vector>>::_Vector_impl" = type { %"struct.std::_Vector_base<duckdb::Vector, std::allocator<duckdb::Vector>>::_Vector_impl_data" }
%"struct.std::_Vector_base<duckdb::Vector, std::allocator<duckdb::Vector>>::_Vector_impl_data" = type { ptr, ptr, ptr }
%"class.duckdb::vector.13" = type { %"class.std::vector.14" }
%"class.std::vector.14" = type { %"struct.std::_Vector_base.15" }
%"struct.std::_Vector_base.15" = type { %"struct.std::_Vector_base<duckdb::VectorCache, std::allocator<duckdb::VectorCache>>::_Vector_impl" }
%"struct.std::_Vector_base<duckdb::VectorCache, std::allocator<duckdb::VectorCache>>::_Vector_impl" = type { %"struct.std::_Vector_base<duckdb::VectorCache, std::allocator<duckdb::VectorCache>>::_Vector_impl_data" }
%"struct.std::_Vector_base<duckdb::VectorCache, std::allocator<duckdb::VectorCache>>::_Vector_impl_data" = type { ptr, ptr, ptr }

; Function Attrs: mustprogress uwtable
define linkonce_odr void @_ZN6duckdb13UnaryExecutor7ExecuteINS_8string_tES2_NS_18BlobDecodeOperatorEEEvRNS_6VectorES5_m(ptr noundef nonnull align 8 dereferenceable(104) %0, ptr noundef nonnull align 8 dereferenceable(104) %1, i64 noundef %2) #0 comdat align 2 {
  %4 = alloca ptr, align 8
  %5 = alloca ptr, align 8
  %6 = alloca i64, align 8
  store ptr %0, ptr %4, align 8, !tbaa !19
  store ptr %1, ptr %5, align 8, !tbaa !19
  store i64 %2, ptr %6, align 8, !tbaa !70
  %7 = load ptr, ptr %4, align 8, !tbaa !19
  %8 = load ptr, ptr %5, align 8, !tbaa !19
  %9 = load i64, ptr %6, align 8, !tbaa !70
  call void @_ZN6duckdb13UnaryExecutor15ExecuteStandardINS_8string_tES2_NS_20UnaryOperatorWrapperENS_18BlobDecodeOperatorEEEvRNS_6VectorES6_mPvbNS_14FunctionErrorsE(ptr noundef nonnull align 8 dereferenceable(104) %7, ptr noundef nonnull align 8 dereferenceable(104) %8, i64 noundef %9, ptr noundef null, i1 noundef zeroext false, i8 noundef zeroext 1)
  ret void
}

; Function Attrs: inlinehint mustprogress nounwind uwtable
define linkonce_odr noundef i64 @_ZNK6duckdb9DataChunk4sizeEv(ptr noundef nonnull align 8 dereferenceable(64) %0) #6 comdat align 2 {
  %2 = alloca ptr, align 8
  store ptr %0, ptr %2, align 8, !tbaa !15
  %3 = load ptr, ptr %2, align 8
  %4 = getelementptr inbounds nuw %"class.duckdb::DataChunk", ptr %3, i32 0, i32 1
  %5 = load i64, ptr %4, align 8, !tbaa !89
  ret i64 %5
}

; Function Attrs: mustprogress uwtable
define internal void @_ZN6duckdbL14DecodeFunctionERNS_9DataChunkERNS_15ExpressionStateERNS_6VectorE(ptr noundef nonnull align 8 dereferenceable(64) %0, ptr noundef nonnull align 8 dereferenceable(176) %1, ptr noundef nonnull align 8 dereferenceable(104) %2) #0 {
  %4 = alloca ptr, align 8
  %5 = alloca ptr, align 8
  %6 = alloca ptr, align 8
  store ptr %0, ptr %4, align 8, !tbaa !15
  store ptr %1, ptr %5, align 8, !tbaa !17
  store ptr %2, ptr %6, align 8, !tbaa !19
  %7 = load ptr, ptr %4, align 8, !tbaa !15
  %8 = getelementptr inbounds nuw %"class.duckdb::DataChunk", ptr %7, i32 0, i32 0
  %9 = call noundef nonnull align 8 dereferenceable(104) ptr @_ZN6duckdb6vectorINS_6VectorELb1EEixEm(ptr noundef nonnull align 8 dereferenceable(24) %8, i64 noundef 0)
  %10 = load ptr, ptr %6, align 8, !tbaa !19
  %11 = load ptr, ptr %4, align 8, !tbaa !15
  %12 = call noundef i64 @_ZNK6duckdb9DataChunk4sizeEv(ptr noundef nonnull align 8 dereferenceable(64) %11)
  call void @_ZN6duckdb13UnaryExecutor7ExecuteINS_8string_tES2_NS_18BlobDecodeOperatorEEEvRNS_6VectorES5_m(ptr noundef nonnull align 8 dereferenceable(104) %9, ptr noundef nonnull align 8 dereferenceable(104) %10, i64 noundef %12)
  %13 = load ptr, ptr %6, align 8, !tbaa !19
  %14 = load ptr, ptr %4, align 8, !tbaa !15
  %15 = getelementptr inbounds nuw %"class.duckdb::DataChunk", ptr %14, i32 0, i32 0
  %16 = call noundef nonnull align 8 dereferenceable(104) ptr @_ZN6duckdb6vectorINS_6VectorELb1EEixEm(ptr noundef nonnull align 8 dereferenceable(24) %15, i64 noundef 0)
  call void @_ZN6duckdb12StringVector16AddHeapReferenceERNS_6VectorES2_(ptr noundef nonnull align 8 dereferenceable(104) %13, ptr noundef nonnull align 8 dereferenceable(104) %16)
  ret void
}