; Function Attrs: mustprogress uwtable
define internal void @_ZN6duckdbL14DecodeFunctionERNS_9DataChunkERNS_15ExpressionStateERNS_6VectorE(ptr noundef nonnull align 8 dereferenceable(64) %0, ptr nonnull readnone align 8 captures(none) %1, ptr noundef nonnull align 8 dereferenceable(104) %2) #0 {
  %4 = tail call noundef nonnull align 8 dereferenceable(104) ptr @_ZN6duckdb6vectorINS_6VectorELb1EEixEm(ptr noundef nonnull align 8 dereferenceable(24) %0, i64 noundef 0)
  %5 = getelementptr inbounds nuw i8, ptr %0, i64 24
  %6 = load i64, ptr %5, align 8, !tbaa !18
  tail call void @_ZN6duckdb13UnaryExecutor15ExecuteStandardINS_8string_tES2_NS_20UnaryOperatorWrapperENS_18BlobDecodeOperatorEEEvRNS_6VectorES6_mPvbNS_14FunctionErrorsE(ptr noundef nonnull align 8 dereferenceable(104) %4, ptr noundef nonnull align 8 dereferenceable(104) %2, i64 noundef %6, ptr noundef null, i1 noundef zeroext false, i8 noundef zeroext 1)
  %7 = tail call noundef nonnull align 8 dereferenceable(104) ptr @_ZN6duckdb6vectorINS_6VectorELb1EEixEm(ptr noundef nonnull align 8 dereferenceable(24) %0, i64 noundef 0)
  tail call void @_ZN6duckdb12StringVector16AddHeapReferenceERNS_6VectorES2_(ptr noundef nonnull align 8 dereferenceable(104) %2, ptr noundef nonnull align 8 dereferenceable(104) %7)
  ret void
}